; Function Attrs: mustprogress nounwind uwtable
define void @_ZN6icu_759UVector32D2Ev(ptr noundef nonnull align 8 dereferenceable(32) %this) unnamed_addr #5 align 2 personality ptr @__gxx_personality_v0 {
entry:
  store ptr getelementptr inbounds ({ [5 x ptr] }, ptr @_ZTVN6icu_759UVector32E, i64 0, i32 0, i64 2), ptr %this, align 8
  %elements = getelementptr inbounds i8, ptr %this, i64 24
  %0 = load ptr, ptr %elements, align 8
  invoke void @uprv_free_75(ptr noundef %0)
          to label %invoke.cont unwind label %terminate.lpad

invoke.cont:                                      ; preds = %entry
  store ptr null, ptr %elements, align 8
  tail call void @_ZN6icu_757UObjectD2Ev(ptr noundef nonnull align 8 dereferenceable(8) %this) #14
  ret void

terminate.lpad:                                   ; preds = %entry
  %1 = landingpad { ptr, i32 }
          catch ptr null
  %2 = extractvalue { ptr, i32 } %1, 0
  tail call void @__clang_call_terminate(ptr %2) #15
  unreachable
}